target datalayout = "e-m:e-p270:32:32-p271:32:32-p272:64:64-i64:64-i128:128-f80:128-n8:16:32:64-S128"
target triple = "x86_64-pc-linux-gnu"

%struct.wtap = type { ptr, ptr, i8, i32, i32, ptr, ptr, ptr, i32, ptr, ptr, ptr, ptr, ptr, ptr, ptr, ptr, ptr, ptr, i32, i32, ptr, ptr, ptr, ptr }
%struct.wtap_rec = type { i32, i32, i32, %struct.nstime_t, i32, %struct.nstime_t, i8, %union.anon, ptr, i8, %struct.Buffer, %struct.Buffer }
%struct.nstime_t = type { i64, i32 }
%union.anon = type { %struct.wtap_packet_header }
%struct.wtap_packet_header = type { i32, i32, i32, i32, %union.wtap_pseudo_header }
%union.wtap_pseudo_header = type { %struct.erf_mc_phdr }
%struct.erf_mc_phdr = type { %struct.erf_phdr, [16 x %struct.erf_ehdr], %union.anon.1 }
%struct.erf_phdr = type { i64, i8, i8, i16, i16, i16 }
%struct.erf_ehdr = type { i64 }
%union.anon.1 = type { i32 }
%struct.Buffer = type { ptr, i64, i64, i64 }

@.str.1 = private unnamed_addr constant [9 x i8] c"(i) len=\00", align 1
@.str.2 = private unnamed_addr constant [9 x i8] c"(o) len=\00", align 1

; Function Attrs: null_pointer_is_valid sspstrong uwtable
define internal i64 @netscreen_seek_next_packet(ptr noundef %0, ptr noundef %1, ptr noundef %2, ptr noundef %3) #0 {
  %5 = alloca i64, align 8
  %6 = alloca ptr, align 8
  %7 = alloca ptr, align 8
  %8 = alloca ptr, align 8
  %9 = alloca ptr, align 8
  %10 = alloca i64, align 8
  %11 = alloca [128 x i8], align 16
  %12 = alloca i32, align 4
  store ptr %0, ptr %6, align 8
  store ptr %1, ptr %7, align 8
  store ptr %2, ptr %8, align 8
  store ptr %3, ptr %9, align 8
  call void @llvm.lifetime.start.p0(i64 8, ptr %10) #9
  call void @llvm.lifetime.start.p0(i64 128, ptr %11) #9
  br label %13

13:                                               ; preds = %55, %4
  br label %14

14:                                               ; preds = %13
  %15 = load ptr, ptr %6, align 8
  %16 = getelementptr inbounds nuw %struct.wtap, ptr %15, i32 0, i32 0
  %17 = load ptr, ptr %16, align 8
  %18 = call i64 @file_tell(ptr noundef %17)
  store i64 %18, ptr %10, align 8
  %19 = load i64, ptr %10, align 8
  %20 = icmp eq i64 %19, -1
  br i1 %20, label %21, label %28

21:                                               ; preds = %14
  %22 = load ptr, ptr %6, align 8
  %23 = getelementptr inbounds nuw %struct.wtap, ptr %22, i32 0, i32 0
  %24 = load ptr, ptr %23, align 8
  %25 = load ptr, ptr %8, align 8
  %26 = call i32 @file_error(ptr noundef %24, ptr noundef %25)
  %27 = load ptr, ptr %7, align 8
  store i32 %26, ptr %27, align 4
  store i64 -1, ptr %5, align 8
  store i32 1, ptr %12, align 4
  br label %57

28:                                               ; preds = %14
  %29 = getelementptr inbounds [128 x i8], ptr %11, i64 0, i64 0
  %30 = load ptr, ptr %6, align 8
  %31 = getelementptr inbounds nuw %struct.wtap, ptr %30, i32 0, i32 0
  %32 = load ptr, ptr %31, align 8
  %33 = call ptr @file_gets(ptr noundef %29, i32 noundef 128, ptr noundef %32)
  %34 = icmp eq ptr %33, null
  br i1 %34, label %35, label %42

35:                                               ; preds = %28
  %36 = load ptr, ptr %6, align 8
  %37 = getelementptr inbounds nuw %struct.wtap, ptr %36, i32 0, i32 0
  %38 = load ptr, ptr %37, align 8
  %39 = load ptr, ptr %8, align 8
  %40 = call i32 @file_error(ptr noundef %38, ptr noundef %39)
  %41 = load ptr, ptr %7, align 8
  store i32 %40, ptr %41, align 4
  br label %56

42:                                               ; preds = %28
  %43 = getelementptr inbounds [128 x i8], ptr %11, i64 0, i64 0
  %44 = call ptr @strstr(ptr noundef %43, ptr noundef @.str.1) #10
  %45 = icmp ne ptr %44, null
  br i1 %45, label %50, label %46

46:                                               ; preds = %42
  %47 = getelementptr inbounds [128 x i8], ptr %11, i64 0, i64 0
  %48 = call ptr @strstr(ptr noundef %47, ptr noundef @.str.2) #10
  %49 = icmp ne ptr %48, null
  br i1 %49, label %50, label %55

50:                                               ; preds = %46, %42
  %51 = load ptr, ptr %9, align 8
  %52 = getelementptr inbounds [128 x i8], ptr %11, i64 0, i64 0
  %53 = call i64 @g_strlcpy(ptr noundef %51, ptr noundef %52, i64 noundef 128)
  %54 = load i64, ptr %10, align 8
  store i64 %54, ptr %5, align 8
  store i32 1, ptr %12, align 4
  br label %57

55:                                               ; preds = %46
  br label %13

56:                                               ; preds = %35
  store i64 -1, ptr %5, align 8
  store i32 1, ptr %12, align 4
  br label %57

57:                                               ; preds = %56, %50, %21
  call void @llvm.lifetime.end.p0(i64 128, ptr %11) #9
  call void @llvm.lifetime.end.p0(i64 8, ptr %10) #9
  %58 = load i64, ptr %5, align 8
  ret i64 %58
}

; Function Attrs: null_pointer_is_valid sspstrong uwtable
define internal zeroext i1 @netscreen_read(ptr noundef %0, ptr noundef %1, ptr noundef %2, ptr noundef %3, ptr noundef %4) #0 {
  %6 = alloca i1, align 1
  %7 = alloca ptr, align 8
  %8 = alloca ptr, align 8
  %9 = alloca ptr, align 8
  %10 = alloca ptr, align 8
  %11 = alloca ptr, align 8
  %12 = alloca i64, align 8
  %13 = alloca [128 x i8], align 16
  %14 = alloca i32, align 4
  store ptr %0, ptr %7, align 8
  store ptr %1, ptr %8, align 8
  store ptr %2, ptr %9, align 8
  store ptr %3, ptr %10, align 8
  store ptr %4, ptr %11, align 8
  call void @llvm.lifetime.start.p0(i64 8, ptr %12) #9
  call void @llvm.lifetime.start.p0(i64 128, ptr %13) #9
  %15 = load ptr, ptr %7, align 8
  %16 = load ptr, ptr %9, align 8
  %17 = load ptr, ptr %10, align 8
  %18 = getelementptr inbounds [128 x i8], ptr %13, i64 0, i64 0
  %19 = call i64 @netscreen_seek_next_packet(ptr noundef %15, ptr noundef %16, ptr noundef %17, ptr noundef %18)
  store i64 %19, ptr %12, align 8
  %20 = load i64, ptr %12, align 8
  %21 = icmp slt i64 %20, 0
  br i1 %21, label %22, label %23

22:                                               ; preds = %5
  store i1 false, ptr %6, align 1
  store i32 1, ptr %14, align 4
  br label %61

23:                                               ; preds = %5
  %24 = load ptr, ptr %7, align 8
  %25 = getelementptr inbounds nuw %struct.wtap, ptr %24, i32 0, i32 0
  %26 = load ptr, ptr %25, align 8
  %27 = load ptr, ptr %8, align 8
  %28 = getelementptr inbounds [128 x i8], ptr %13, i64 0, i64 0
  %29 = load ptr, ptr %9, align 8
  %30 = load ptr, ptr %10, align 8
  %31 = call zeroext i1 @parse_netscreen_packet(ptr noundef %26, ptr noundef %27, ptr noundef %28, ptr noundef %29, ptr noundef %30)
  br i1 %31, label %33, label %32

32:                                               ; preds = %23
  store i1 false, ptr %6, align 1
  store i32 1, ptr %14, align 4
  br label %61

33:                                               ; preds = %23
  %34 = load ptr, ptr %7, align 8
  %35 = getelementptr inbounds nuw %struct.wtap, ptr %34, i32 0, i32 19
  %36 = load i32, ptr %35, align 8
  %37 = icmp eq i32 %36, 0
  br i1 %37, label %38, label %45

38:                                               ; preds = %33
  %39 = load ptr, ptr %8, align 8
  %40 = getelementptr inbounds nuw %struct.wtap_rec, ptr %39, i32 0, i32 7
  %41 = getelementptr inbounds nuw %struct.wtap_packet_header, ptr %40, i32 0, i32 2
  %42 = load i32, ptr %41, align 8
  %43 = load ptr, ptr %7, align 8
  %44 = getelementptr inbounds nuw %struct.wtap, ptr %43, i32 0, i32 19
  store i32 %42, ptr %44, align 8
  br label %58

45:                                               ; preds = %33
  %46 = load ptr, ptr %7, align 8
  %47 = getelementptr inbounds nuw %struct.wtap, ptr %46, i32 0, i32 19
  %48 = load i32, ptr %47, align 8
  %49 = load ptr, ptr %8, align 8
  %50 = getelementptr inbounds nuw %struct.wtap_rec, ptr %49, i32 0, i32 7
  %51 = getelementptr inbounds nuw %struct.wtap_packet_header, ptr %50, i32 0, i32 2
  %52 = load i32, ptr %51, align 8
  %53 = icmp ne i32 %48, %52
  br i1 %53, label %54, label %57

54:                                               ; preds = %45
  %55 = load ptr, ptr %7, align 8
  %56 = getelementptr inbounds nuw %struct.wtap, ptr %55, i32 0, i32 19
  store i32 -1, ptr %56, align 8
  br label %57

57:                                               ; preds = %54, %45
  br label %58

58:                                               ; preds = %57, %38
  %59 = load i64, ptr %12, align 8
  %60 = load ptr, ptr %11, align 8
  store i64 %59, ptr %60, align 8
  store i1 true, ptr %6, align 1
  store i32 1, ptr %14, align 4
  br label %61

61:                                               ; preds = %58, %32, %22
  call void @llvm.lifetime.end.p0(i64 128, ptr %13) #9
  call void @llvm.lifetime.end.p0(i64 8, ptr %12) #9
  %62 = load i1, ptr %6, align 1
  ret i1 %62
}