; Function Attrs: null_pointer_is_valid sspstrong uwtable
define internal noundef zeroext i1 @netscreen_read(ptr noundef captures(none) %0, ptr noundef %1, ptr noundef writeonly captures(none) %2, ptr noundef %3, ptr noundef writeonly captures(none) %4) #0 {
  %6 = alloca [128 x i8], align 16
  %7 = alloca [128 x i8], align 16
  call void @llvm.lifetime.start.p0(i64 128, ptr nonnull %7) #8
  call void @llvm.lifetime.start.p0(i64 128, ptr nonnull %6) #8
  br label %8

8:                                                ; preds = %20, %5
  %9 = load ptr, ptr %0, align 8
  %10 = call i64 @file_tell(ptr noundef %9)
  %11 = icmp eq i64 %10, -1
  %12 = load ptr, ptr %0, align 8
  br i1 %11, label %netscreen_seek_next_packet.exit.thread, label %13

13:                                               ; preds = %8
  %14 = call ptr @file_gets(ptr noundef nonnull %6, i32 noundef 128, ptr noundef %12)
  %15 = icmp eq ptr %14, null
  br i1 %15, label %16, label %18

16:                                               ; preds = %13
  %17 = load ptr, ptr %0, align 8
  br label %netscreen_seek_next_packet.exit.thread

18:                                               ; preds = %13
  %19 = call ptr @strstr(ptr noundef nonnull dereferenceable(1) %6, ptr noundef nonnull dereferenceable(1) @.str.1) #9
  %.not.i = icmp eq ptr %19, null
  br i1 %.not.i, label %20, label %netscreen_seek_next_packet.exit

20:                                               ; preds = %18
  %21 = call ptr @strstr(ptr noundef nonnull dereferenceable(1) %6, ptr noundef nonnull dereferenceable(1) @.str.2) #9
  %.not12.i = icmp eq ptr %21, null
  br i1 %.not12.i, label %8, label %netscreen_seek_next_packet.exit

netscreen_seek_next_packet.exit.thread:           ; preds = %8, %16
  %.lcssa.sink = phi ptr [ %17, %16 ], [ %12, %8 ]
  %22 = call i32 @file_error(ptr noundef %.lcssa.sink, ptr noundef %3)
  store i32 %22, ptr %2, align 4
  call void @llvm.lifetime.end.p0(i64 128, ptr nonnull %6) #8
  br label %36

netscreen_seek_next_packet.exit:                  ; preds = %18, %20
  %23 = call i64 @g_strlcpy(ptr noundef nonnull %7, ptr noundef nonnull %6, i64 noundef 128)
  call void @llvm.lifetime.end.p0(i64 128, ptr nonnull %6) #8
  %24 = icmp slt i64 %10, 0
  br i1 %24, label %36, label %25

25:                                               ; preds = %netscreen_seek_next_packet.exit
  %26 = load ptr, ptr %0, align 8
  %27 = call fastcc zeroext i1 @parse_netscreen_packet(ptr noundef %26, ptr noundef %1, ptr noundef nonnull %7, ptr noundef %2, ptr noundef %3)
  br i1 %27, label %28, label %36

28:                                               ; preds = %25
  %29 = getelementptr inbounds nuw i8, ptr %0, i64 144
  %30 = load i32, ptr %29, align 8
  %31 = icmp eq i32 %30, 0
  %32 = getelementptr inbounds nuw i8, ptr %1, i64 72
  %33 = load i32, ptr %32, align 8
  br i1 %31, label %.sink.split, label %34

34:                                               ; preds = %28
  %.not = icmp eq i32 %30, %33
  br i1 %.not, label %35, label %.sink.split

.sink.split:                                      ; preds = %34, %28
  %.sink = phi i32 [ %33, %28 ], [ -1, %34 ]
  store i32 %.sink, ptr %29, align 8
  br label %35

35:                                               ; preds = %.sink.split, %34
  store i64 %10, ptr %4, align 8
  br label %36

36:                                               ; preds = %netscreen_seek_next_packet.exit.thread, %25, %netscreen_seek_next_packet.exit, %35
  %.0 = phi i1 [ true, %35 ], [ false, %netscreen_seek_next_packet.exit ], [ false, %25 ], [ false, %netscreen_seek_next_packet.exit.thread ]
  call void @llvm.lifetime.end.p0(i64 128, ptr nonnull %7) #8
  ret i1 %.0
}